target datalayout = "e-m:e-p270:32:32-p271:32:32-p272:64:64-i64:64-i128:128-f80:128-n8:16:32:64-S128"
target triple = "x86_64-pc-linux-gnu"

%struct.pmix_class_t = type { ptr, ptr, ptr, ptr, i32, i32, ptr, ptr, i64 }
%struct.pmix_object_t = type { %union.pthread_mutex_t, ptr, i32, %struct.pmix_tma }
%union.pthread_mutex_t = type { %struct.__pthread_mutex_s }
%struct.__pthread_mutex_s = type { i32, i32, i32, i32, i32, i16, i16, %struct.__pthread_internal_list }
%struct.__pthread_internal_list = type { ptr, ptr }
%struct.pmix_tma = type { ptr, ptr, ptr, ptr, ptr, ptr, ptr, ptr }
%struct.prte_bp_graph_t = type { i32, %struct.pmix_pointer_array_t, i32, i32, ptr, ptr }
%struct.pmix_pointer_array_t = type { %struct.pmix_object_t, i32, i32, i32, i32, i32, ptr, ptr }

@.str.1 = private unnamed_addr constant [37 x i8] c"PRTE ERROR: %s in file %s at line %d\00", align 1
@.str.2 = private unnamed_addr constant [18 x i8] c"bipartite_graph.c\00", align 1
@pmix_class_init_epoch = external global i32, align 4
@pmix_pointer_array_t_class = external global %struct.pmix_class_t, align 8

; Function Attrs: inlinehint nounwind uwtable
define internal void @pmix_obj_run_constructors(ptr noundef %0) #4 {
  %2 = alloca ptr, align 8
  %3 = alloca ptr, align 8
  store ptr %0, ptr %2, align 8, !tbaa !31
  call void @llvm.lifetime.start.p0(i64 8, ptr %3) #12
  %4 = load ptr, ptr %2, align 8, !tbaa !31
  %5 = getelementptr inbounds nuw %struct.pmix_object_t, ptr %4, i32 0, i32 1
  %6 = load ptr, ptr %5, align 8, !tbaa !15
  %7 = getelementptr inbounds nuw %struct.pmix_class_t, ptr %6, i32 0, i32 6
  %8 = load ptr, ptr %7, align 8, !tbaa !44
  store ptr %8, ptr %3, align 8, !tbaa !19
  br label %9

9:                                                ; preds = %13, %1
  %10 = load ptr, ptr %3, align 8, !tbaa !19
  %11 = load ptr, ptr %10, align 8, !tbaa !19
  %12 = icmp ne ptr null, %11
  br i1 %12, label %13, label %19

13:                                               ; preds = %9
  %14 = load ptr, ptr %3, align 8, !tbaa !19
  %15 = load ptr, ptr %14, align 8, !tbaa !19
  %16 = load ptr, ptr %2, align 8, !tbaa !31
  call void %15(ptr noundef %16)
  %17 = load ptr, ptr %3, align 8, !tbaa !19
  %18 = getelementptr inbounds nuw ptr, ptr %17, i32 1
  store ptr %18, ptr %3, align 8, !tbaa !19
  br label %9, !llvm.loop !45

19:                                               ; preds = %9
  call void @llvm.lifetime.end.p0(i64 8, ptr %3) #12
  ret void
}

; Function Attrs: inlinehint nounwind uwtable
define internal void @pmix_obj_construct_tma(ptr noundef %0, ptr noundef %1) #4 {
  %3 = alloca ptr, align 8
  %4 = alloca ptr, align 8
  store ptr %0, ptr %3, align 8, !tbaa !31
  store ptr %1, ptr %4, align 8, !tbaa !33
  %5 = load ptr, ptr %4, align 8, !tbaa !33
  %6 = icmp eq ptr null, %5
  br i1 %6, label %7, label %32

7:                                                ; preds = %2
  %8 = load ptr, ptr %3, align 8, !tbaa !31
  %9 = getelementptr inbounds nuw %struct.pmix_object_t, ptr %8, i32 0, i32 3
  %10 = getelementptr inbounds nuw %struct.pmix_tma, ptr %9, i32 0, i32 0
  store ptr null, ptr %10, align 8, !tbaa !35
  %11 = load ptr, ptr %3, align 8, !tbaa !31
  %12 = getelementptr inbounds nuw %struct.pmix_object_t, ptr %11, i32 0, i32 3
  %13 = getelementptr inbounds nuw %struct.pmix_tma, ptr %12, i32 0, i32 1
  store ptr null, ptr %13, align 8, !tbaa !36
  %14 = load ptr, ptr %3, align 8, !tbaa !31
  %15 = getelementptr inbounds nuw %struct.pmix_object_t, ptr %14, i32 0, i32 3
  %16 = getelementptr inbounds nuw %struct.pmix_tma, ptr %15, i32 0, i32 2
  store ptr null, ptr %16, align 8, !tbaa !37
  %17 = load ptr, ptr %3, align 8, !tbaa !31
  %18 = getelementptr inbounds nuw %struct.pmix_object_t, ptr %17, i32 0, i32 3
  %19 = getelementptr inbounds nuw %struct.pmix_tma, ptr %18, i32 0, i32 3
  store ptr null, ptr %19, align 8, !tbaa !38
  %20 = load ptr, ptr %3, align 8, !tbaa !31
  %21 = getelementptr inbounds nuw %struct.pmix_object_t, ptr %20, i32 0, i32 3
  %22 = getelementptr inbounds nuw %struct.pmix_tma, ptr %21, i32 0, i32 4
  store ptr null, ptr %22, align 8, !tbaa !39
  %23 = load ptr, ptr %3, align 8, !tbaa !31
  %24 = getelementptr inbounds nuw %struct.pmix_object_t, ptr %23, i32 0, i32 3
  %25 = getelementptr inbounds nuw %struct.pmix_tma, ptr %24, i32 0, i32 5
  store ptr null, ptr %25, align 8, !tbaa !40
  %26 = load ptr, ptr %3, align 8, !tbaa !31
  %27 = getelementptr inbounds nuw %struct.pmix_object_t, ptr %26, i32 0, i32 3
  %28 = getelementptr inbounds nuw %struct.pmix_tma, ptr %27, i32 0, i32 6
  store ptr null, ptr %28, align 8, !tbaa !41
  %29 = load ptr, ptr %3, align 8, !tbaa !31
  %30 = getelementptr inbounds nuw %struct.pmix_object_t, ptr %29, i32 0, i32 3
  %31 = getelementptr inbounds nuw %struct.pmix_tma, ptr %30, i32 0, i32 7
  store ptr null, ptr %31, align 8, !tbaa !42
  br label %36

32:                                               ; preds = %2
  %33 = load ptr, ptr %3, align 8, !tbaa !31
  %34 = getelementptr inbounds nuw %struct.pmix_object_t, ptr %33, i32 0, i32 3
  %35 = load ptr, ptr %4, align 8, !tbaa !33
  call void @llvm.memcpy.p0.p0.i64(ptr align 8 %34, ptr align 8 %35, i64 64, i1 false), !tbaa.struct !43
  br label %36

36:                                               ; preds = %32, %7
  ret void
}

; Function Attrs: nounwind uwtable
define i32 @prte_bp_graph_create(ptr noundef %0, ptr noundef %1, ptr noundef %2) #0 {
  %4 = alloca i32, align 4
  %5 = alloca ptr, align 8
  %6 = alloca ptr, align 8
  %7 = alloca ptr, align 8
  %8 = alloca i32, align 4
  %9 = alloca ptr, align 8
  %10 = alloca i32, align 4
  store ptr %0, ptr %5, align 8, !tbaa !19
  store ptr %1, ptr %6, align 8, !tbaa !19
  store ptr %2, ptr %7, align 8, !tbaa !20
  call void @llvm.lifetime.start.p0(i64 4, ptr %8) #12
  call void @llvm.lifetime.start.p0(i64 8, ptr %9) #12
  store ptr null, ptr %9, align 8, !tbaa !22
  %11 = load ptr, ptr %7, align 8, !tbaa !20
  %12 = icmp eq ptr null, %11
  br i1 %12, label %13, label %14

13:                                               ; preds = %3
  store i32 -5, ptr %4, align 4
  store i32 1, ptr %10, align 4
  br label %71

14:                                               ; preds = %3
  %15 = load ptr, ptr %7, align 8, !tbaa !20
  store ptr null, ptr %15, align 8, !tbaa !22
  %16 = call noalias ptr @calloc(i64 noundef 1, i64 noundef 192) #13
  store ptr %16, ptr %9, align 8, !tbaa !22
  %17 = load ptr, ptr %9, align 8, !tbaa !22
  %18 = icmp eq ptr null, %17
  br i1 %18, label %19, label %24

19:                                               ; preds = %14
  br label %20

20:                                               ; preds = %19
  %21 = call ptr @prte_strerror(i32 noundef -2)
  call void (i32, ptr, ...) @pmix_output(i32 noundef 0, ptr noundef @.str.1, ptr noundef %21, ptr noundef @.str.2, i32 noundef 179)
  br label %22

22:                                               ; preds = %20
  br label %23

23:                                               ; preds = %22
  store i32 -2, ptr %8, align 4, !tbaa !8
  br label %68

24:                                               ; preds = %14
  %25 = load ptr, ptr %9, align 8, !tbaa !22
  %26 = getelementptr inbounds nuw %struct.prte_bp_graph_t, ptr %25, i32 0, i32 2
  store i32 -1, ptr %26, align 8, !tbaa !24
  %27 = load ptr, ptr %9, align 8, !tbaa !22
  %28 = getelementptr inbounds nuw %struct.prte_bp_graph_t, ptr %27, i32 0, i32 3
  store i32 -1, ptr %28, align 4, !tbaa !28
  %29 = load ptr, ptr %5, align 8, !tbaa !19
  %30 = load ptr, ptr %9, align 8, !tbaa !22
  %31 = getelementptr inbounds nuw %struct.prte_bp_graph_t, ptr %30, i32 0, i32 4
  store ptr %29, ptr %31, align 8, !tbaa !29
  %32 = load ptr, ptr %6, align 8, !tbaa !19
  %33 = load ptr, ptr %9, align 8, !tbaa !22
  %34 = getelementptr inbounds nuw %struct.prte_bp_graph_t, ptr %33, i32 0, i32 5
  store ptr %32, ptr %34, align 8, !tbaa !30
  br label %35

35:                                               ; preds = %24
  br label %36

36:                                               ; preds = %35
  br label %37

37:                                               ; preds = %36
  %38 = load i32, ptr @pmix_class_init_epoch, align 4, !tbaa !8
  %39 = load i32, ptr getelementptr inbounds nuw (%struct.pmix_class_t, ptr @pmix_pointer_array_t_class, i32 0, i32 4), align 8, !tbaa !10
  %40 = icmp ne i32 %38, %39
  br i1 %40, label %41, label %42

41:                                               ; preds = %37
  call void @pmix_class_initialize(ptr noundef @pmix_pointer_array_t_class)
  br label %42

42:                                               ; preds = %41, %37
  %43 = load ptr, ptr %9, align 8, !tbaa !22
  %44 = getelementptr inbounds nuw %struct.prte_bp_graph_t, ptr %43, i32 0, i32 1
  %45 = getelementptr inbounds nuw %struct.pmix_object_t, ptr %44, i32 0, i32 1
  store ptr @pmix_pointer_array_t_class, ptr %45, align 8, !tbaa !15
  %46 = load ptr, ptr %9, align 8, !tbaa !22
  %47 = getelementptr inbounds nuw %struct.prte_bp_graph_t, ptr %46, i32 0, i32 1
  %48 = getelementptr inbounds nuw %struct.pmix_object_t, ptr %47, i32 0, i32 2
  store i32 1, ptr %48, align 8, !tbaa !18
  %49 = load ptr, ptr %9, align 8, !tbaa !22
  %50 = getelementptr inbounds nuw %struct.prte_bp_graph_t, ptr %49, i32 0, i32 1
  call void @pmix_obj_construct_tma(ptr noundef %50, ptr noundef null)
  %51 = load ptr, ptr %9, align 8, !tbaa !22
  %52 = getelementptr inbounds nuw %struct.prte_bp_graph_t, ptr %51, i32 0, i32 1
  call void @pmix_obj_run_constructors(ptr noundef %52)
  br label %53

53:                                               ; preds = %42
  br label %54

54:                                               ; preds = %53
  br label %55

55:                                               ; preds = %54
  br label %56

56:                                               ; preds = %55
  br label %57

57:                                               ; preds = %56
  br label %58

58:                                               ; preds = %57
  %59 = load ptr, ptr %9, align 8, !tbaa !22
  %60 = getelementptr inbounds nuw %struct.prte_bp_graph_t, ptr %59, i32 0, i32 1
  %61 = call i32 @pmix_pointer_array_init(ptr noundef %60, i32 noundef 0, i32 noundef 2147483647, i32 noundef 32)
  store i32 %61, ptr %8, align 4, !tbaa !8
  %62 = load i32, ptr %8, align 4, !tbaa !8
  %63 = icmp ne i32 0, %62
  br i1 %63, label %64, label %65

64:                                               ; preds = %58
  br label %68

65:                                               ; preds = %58
  %66 = load ptr, ptr %9, align 8, !tbaa !22
  %67 = load ptr, ptr %7, align 8, !tbaa !20
  store ptr %66, ptr %67, align 8, !tbaa !22
  store i32 0, ptr %4, align 4
  store i32 1, ptr %10, align 4
  br label %71

68:                                               ; preds = %64, %23
  %69 = load ptr, ptr %9, align 8, !tbaa !22
  call void @free(ptr noundef %69) #12
  %70 = load i32, ptr %8, align 4, !tbaa !8
  store i32 %70, ptr %4, align 4
  store i32 1, ptr %10, align 4
  br label %71

71:                                               ; preds = %68, %65, %13
  call void @llvm.lifetime.end.p0(i64 8, ptr %9) #12
  call void @llvm.lifetime.end.p0(i64 4, ptr %8) #12
  %72 = load i32, ptr %4, align 4
  ret i32 %72
}