; Function Attrs: nounwind uwtable
define i32 @prte_bp_graph_create(ptr noundef %0, ptr noundef %1, ptr noundef writeonly captures(address_is_null) %2) local_unnamed_addr #0 {
  %4 = icmp eq ptr %2, null
  br i1 %4, label %30, label %5

5:                                                ; preds = %3
  store ptr null, ptr %2, align 8, !tbaa !23
  %6 = tail call noalias dereferenceable_or_null(192) ptr @calloc(i64 noundef 1, i64 noundef 192) #15
  %7 = icmp eq ptr %6, null
  br i1 %7, label %8, label %10

8:                                                ; preds = %5
  %9 = tail call ptr @prte_strerror(i32 noundef -2) #14
  tail call void (i32, ptr, ...) @pmix_output(i32 noundef 0, ptr noundef nonnull @.str.1, ptr noundef %9, ptr noundef nonnull @.str.2, i32 noundef 179) #14
  br label %29

10:                                               ; preds = %5
  %11 = getelementptr inbounds nuw i8, ptr %6, i64 168
  store i32 -1, ptr %11, align 8, !tbaa !25
  %12 = getelementptr inbounds nuw i8, ptr %6, i64 172
  store i32 -1, ptr %12, align 4, !tbaa !29
  %13 = getelementptr inbounds nuw i8, ptr %6, i64 176
  store ptr %0, ptr %13, align 8, !tbaa !30
  %14 = getelementptr inbounds nuw i8, ptr %6, i64 184
  store ptr %1, ptr %14, align 8, !tbaa !31
  %15 = load i32, ptr @pmix_class_init_epoch, align 4, !tbaa !3
  %16 = load i32, ptr getelementptr inbounds nuw (i8, ptr @pmix_pointer_array_t_class, i64 32), align 8, !tbaa !7
  %.not = icmp eq i32 %15, %16
  br i1 %.not, label %18, label %17

17:                                               ; preds = %10
  tail call void @pmix_class_initialize(ptr noundef nonnull @pmix_pointer_array_t_class) #14
  br label %18

18:                                               ; preds = %17, %10
  %19 = getelementptr inbounds nuw i8, ptr %6, i64 8
  %20 = getelementptr inbounds nuw i8, ptr %6, i64 48
  store ptr @pmix_pointer_array_t_class, ptr %20, align 8, !tbaa !13
  %21 = getelementptr inbounds nuw i8, ptr %6, i64 56
  store i32 1, ptr %21, align 8, !tbaa !16
  %22 = load ptr, ptr getelementptr inbounds nuw (i8, ptr @pmix_pointer_array_t_class, i64 40), align 8, !tbaa !17
  %23 = load ptr, ptr %22, align 8, !tbaa !18
  %.not6.i = icmp eq ptr %23, null
  br i1 %.not6.i, label %pmix_obj_run_constructors.exit, label %.lr.ph.i

.lr.ph.i:                                         ; preds = %18, %.lr.ph.i
  %24 = phi ptr [ %26, %.lr.ph.i ], [ %23, %18 ]
  %.07.i = phi ptr [ %25, %.lr.ph.i ], [ %22, %18 ]
  tail call void %24(ptr noundef nonnull %19) #14
  %25 = getelementptr inbounds nuw i8, ptr %.07.i, i64 8
  %26 = load ptr, ptr %25, align 8, !tbaa !18
  %.not.i = icmp eq ptr %26, null
  br i1 %.not.i, label %pmix_obj_run_constructors.exit, label %.lr.ph.i, !llvm.loop !19

pmix_obj_run_constructors.exit:                   ; preds = %.lr.ph.i, %18
  %27 = tail call i32 @pmix_pointer_array_init(ptr noundef nonnull %19, i32 noundef 0, i32 noundef 2147483647, i32 noundef 32) #14
  %.not23 = icmp eq i32 %27, 0
  br i1 %.not23, label %28, label %29

28:                                               ; preds = %pmix_obj_run_constructors.exit
  store ptr %6, ptr %2, align 8, !tbaa !23
  br label %30

29:                                               ; preds = %pmix_obj_run_constructors.exit, %8
  %.0 = phi i32 [ -2, %8 ], [ %27, %pmix_obj_run_constructors.exit ]
  tail call void @free(ptr noundef %6) #14
  br label %30

30:                                               ; preds = %3, %29, %28
  %.019 = phi i32 [ %.0, %29 ], [ 0, %28 ], [ -5, %3 ]
  ret i32 %.019
}